target datalayout = "e-m:e-p270:32:32-p271:32:32-p272:64:64-i64:64-i128:128-f80:128-n8:16:32:64-S128"
target triple = "x86_64-pc-linux-gnu"

@.str.6 = private unnamed_addr constant [30 x i8] c"yjit: failed to get page size\00", align 1
@.str.7 = private unnamed_addr constant [25 x i8] c"yjit page size too large\00", align 1

; Function Attrs: nounwind sspstrong uwtable
define hidden i32 @rb_yjit_get_page_size() #0 {
  %1 = alloca i64, align 8
  call void @llvm.lifetime.start.p0(i64 8, ptr %1) #5
  %2 = call i64 @sysconf(i32 noundef 30) #5
  store i64 %2, ptr %1, align 8, !tbaa !13
  %3 = load i64, ptr %1, align 8, !tbaa !13
  %4 = icmp sle i64 %3, 0
  br i1 %4, label %5, label %6

5:                                                ; preds = %0
  call void (ptr, ...) @rb_bug(ptr noundef @.str.6) #24
  unreachable

6:                                                ; preds = %0
  %7 = load i64, ptr %1, align 8, !tbaa !13
  %8 = icmp sgt i64 %7, 1073741824
  br i1 %8, label %9, label %10

9:                                                ; preds = %6
  call void (ptr, ...) @rb_bug(ptr noundef @.str.7) #24
  unreachable

10:                                               ; preds = %6
  %11 = load i64, ptr %1, align 8, !tbaa !13
  %12 = trunc i64 %11 to i32
  call void @llvm.lifetime.end.p0(i64 8, ptr %1) #5
  ret i32 %12
}