; Function Attrs: nounwind sspstrong uwtable
define hidden range(i32 1, 1073741825) i32 @rb_yjit_get_page_size() local_unnamed_addr #0 {
  %1 = tail call i64 @sysconf(i32 noundef 30) #5
  %2 = icmp slt i64 %1, 1
  br i1 %2, label %3, label %4

3:                                                ; preds = %0
  tail call void (ptr, ...) @rb_bug(ptr noundef nonnull @.str.6) #24
  unreachable

4:                                                ; preds = %0
  %5 = icmp samesign ugt i64 %1, 1073741824
  br i1 %5, label %6, label %7

6:                                                ; preds = %4
  tail call void (ptr, ...) @rb_bug(ptr noundef nonnull @.str.7) #24
  unreachable

7:                                                ; preds = %4
  %8 = trunc nuw nsw i64 %1 to i32
  ret i32 %8
}